target datalayout = "e-m:e-p270:32:32-p271:32:32-p272:64:64-i64:64-i128:128-f80:128-n8:16:32:64-S128"
target triple = "x86_64-pc-linux-gnu"

%"struct.std::type_index" = type { ptr }
%"struct.pkpy::any" = type { ptr, ptr }
%"struct.pkpy::any::vtable" = type { %"struct.std::type_index", ptr }

; Function Attrs: mustprogress nounwind uwtable
define noundef nonnull align 8 dereferenceable(16) ptr @_ZN4pkpy3anyaSEOS0_(ptr noundef nonnull align 8 dereferenceable(16) %0, ptr noundef nonnull align 8 dereferenceable(16) %1) #5 align 2 personality ptr @__gxx_personality_v0 {
  %3 = alloca ptr, align 8
  %4 = alloca ptr, align 8
  store ptr %0, ptr %3, align 8
  store ptr %1, ptr %4, align 8
  %5 = load ptr, ptr %3, align 8
  %6 = getelementptr inbounds %"struct.pkpy::any", ptr %5, i32 0, i32 0
  %7 = load ptr, ptr %6, align 8
  %8 = icmp ne ptr %7, null
  br i1 %8, label %9, label %17

9:                                                ; preds = %2
  %10 = getelementptr inbounds %"struct.pkpy::any", ptr %5, i32 0, i32 1
  %11 = load ptr, ptr %10, align 8
  %12 = getelementptr inbounds %"struct.pkpy::any::vtable", ptr %11, i32 0, i32 1
  %13 = load ptr, ptr %12, align 8
  %14 = getelementptr inbounds %"struct.pkpy::any", ptr %5, i32 0, i32 0
  %15 = load ptr, ptr %14, align 8
  invoke void %13(ptr noundef %15)
          to label %16 unwind label %30

16:                                               ; preds = %9
  br label %17

17:                                               ; preds = %16, %2
  %18 = load ptr, ptr %4, align 8
  %19 = getelementptr inbounds %"struct.pkpy::any", ptr %18, i32 0, i32 0
  %20 = load ptr, ptr %19, align 8
  %21 = getelementptr inbounds %"struct.pkpy::any", ptr %5, i32 0, i32 0
  store ptr %20, ptr %21, align 8
  %22 = load ptr, ptr %4, align 8
  %23 = getelementptr inbounds %"struct.pkpy::any", ptr %22, i32 0, i32 1
  %24 = load ptr, ptr %23, align 8
  %25 = getelementptr inbounds %"struct.pkpy::any", ptr %5, i32 0, i32 1
  store ptr %24, ptr %25, align 8
  %26 = load ptr, ptr %4, align 8
  %27 = getelementptr inbounds %"struct.pkpy::any", ptr %26, i32 0, i32 0
  store ptr null, ptr %27, align 8
  %28 = load ptr, ptr %4, align 8
  %29 = getelementptr inbounds %"struct.pkpy::any", ptr %28, i32 0, i32 1
  store ptr null, ptr %29, align 8
  ret ptr %5

30:                                               ; preds = %9
  %31 = landingpad { ptr, i32 }
          catch ptr null
  %32 = extractvalue { ptr, i32 } %31, 0
  call void @__clang_call_terminate(ptr %32) #8
  unreachable
}