; Function Attrs: mustprogress nounwind uwtable
define noundef nonnull align 8 dereferenceable(16) ptr @_ZN4pkpy3anyaSEOS0_(ptr noundef nonnull returned align 8 dereferenceable(16) %0, ptr nocapture noundef nonnull align 8 dereferenceable(16) %1) local_unnamed_addr #6 align 2 personality ptr @__gxx_personality_v0 {
  %3 = load ptr, ptr %0, align 8
  %.not = icmp eq ptr %3, null
  br i1 %.not, label %9, label %4

4:                                                ; preds = %2
  %5 = getelementptr inbounds i8, ptr %0, i64 8
  %6 = load ptr, ptr %5, align 8
  %7 = getelementptr inbounds i8, ptr %6, i64 8
  %8 = load ptr, ptr %7, align 8
  invoke void %8(ptr noundef nonnull %3)
          to label %9 unwind label %14

9:                                                ; preds = %4, %2
  %10 = load ptr, ptr %1, align 8
  store ptr %10, ptr %0, align 8
  %11 = getelementptr inbounds i8, ptr %1, i64 8
  %12 = load ptr, ptr %11, align 8
  %13 = getelementptr inbounds i8, ptr %0, i64 8
  store ptr %12, ptr %13, align 8
  tail call void @llvm.memset.p0.i64(ptr noundef nonnull align 8 dereferenceable(16) %1, i8 0, i64 16, i1 false)
  ret ptr %0

14:                                               ; preds = %4
  %15 = landingpad { ptr, i32 }
          catch ptr null
  %16 = extractvalue { ptr, i32 } %15, 0
  tail call void @__clang_call_terminate(ptr %16) #12
  unreachable
}